; Function Attrs: nounwind uwtable
define internal noundef i32 @experimental_hooks_prof_backtrace_ctl(ptr nocapture readnone %tsd, ptr nocapture readnone %mib, i64 %miblen, ptr noundef writeonly %oldp, ptr noundef %oldlenp, ptr noundef readonly %newp, i64 noundef %newlen) #0 {
entry:
  %old_hook = alloca ptr, align 8
  %cmp = icmp eq ptr %oldp, null
  %cmp1 = icmp eq ptr %newp, null
  %or.cond = and i1 %cmp, %cmp1
  br i1 %or.cond, label %label_return, label %if.end

if.end:                                           ; preds = %entry
  br i1 %cmp, label %if.end13, label %if.then3

if.then3:                                         ; preds = %if.end
  %call = tail call ptr (...) @prof_backtrace_hook_get() #14
  store ptr %call, ptr %old_hook, align 8
  %cmp6.not = icmp eq ptr %oldlenp, null
  br i1 %cmp6.not, label %if.end13, label %if.then7

if.then7:                                         ; preds = %if.then3
  %0 = load i64, ptr %oldlenp, align 8
  %cmp8.not = icmp eq i64 %0, 8
  br i1 %cmp8.not, label %if.end11, label %if.then9

if.then9:                                         ; preds = %if.then7
  %spec.select = tail call i64 @llvm.umin.i64(i64 %0, i64 8)
  call void @llvm.memcpy.p0.p0.i64(ptr nonnull align 1 %oldp, ptr nonnull align 8 %old_hook, i64 %spec.select, i1 false)
  store i64 %spec.select, ptr %oldlenp, align 8
  br label %label_return

if.end11:                                         ; preds = %if.then7
  store ptr %call, ptr %oldp, align 8
  br label %if.end13

if.end13:                                         ; preds = %if.end11, %if.then3, %if.end
  br i1 %cmp1, label %label_return, label %if.then15

if.then15:                                        ; preds = %if.end13
  %1 = load i8, ptr @opt_prof, align 1
  %2 = and i8 %1, 1
  %tobool.not = icmp eq i8 %2, 0
  br i1 %tobool.not, label %label_return, label %if.then20

if.then20:                                        ; preds = %if.then15
  %cmp21.not = icmp eq i64 %newlen, 8
  br i1 %cmp21.not, label %if.end23, label %label_return

if.end23:                                         ; preds = %if.then20
  %3 = load ptr, ptr %newp, align 8
  %cmp26 = icmp eq ptr %3, null
  br i1 %cmp26, label %label_return, label %if.end28

if.end28:                                         ; preds = %if.end23
  tail call void @prof_backtrace_hook_set(ptr noundef nonnull %3) #14
  br label %label_return

label_return:                                     ; preds = %if.end13, %if.end28, %if.end23, %if.then20, %if.then15, %entry, %if.then9
  %ret.0 = phi i32 [ 22, %if.then9 ], [ 22, %entry ], [ 2, %if.then15 ], [ 22, %if.then20 ], [ 22, %if.end23 ], [ 0, %if.end28 ], [ 0, %if.end13 ]
  ret i32 %ret.0
}